; Function Attrs: mustprogress uwtable
define noundef zeroext i1 @_ZN5folly12AsyncTimeout15scheduleTimeoutEjOSt10shared_ptrINS_14RequestContextEE(ptr noundef nonnull align 8 dereferenceable(200) initializes((184, 192)) %0, i32 noundef %1, ptr noundef nonnull align 8 captures(none) dereferenceable(16) %2) local_unnamed_addr #1 align 2 personality ptr @__gxx_personality_v0 {
  %4 = getelementptr inbounds nuw i8, ptr %0, i64 184
  %5 = load ptr, ptr %2, align 8, !tbaa !34
  %6 = getelementptr inbounds nuw i8, ptr %2, i64 8
  %7 = load ptr, ptr %6, align 8, !tbaa !35
  tail call void @llvm.memset.p0.i64(ptr noundef nonnull align 8 dereferenceable(16) %2, i8 0, i64 16, i1 false)
  store ptr %5, ptr %4, align 8, !tbaa !41
  %8 = getelementptr inbounds nuw i8, ptr %0, i64 192
  %9 = load ptr, ptr %8, align 8, !tbaa !35
  store ptr %7, ptr %8, align 8, !tbaa !35
  %.not.i.i.i.i.i = icmp eq ptr %9, null
  br i1 %.not.i.i.i.i.i, label %_ZN5folly12AsyncTimeout15scheduleTimeoutENSt6chrono8durationIlSt5ratioILl1ELl1000EEEEOSt10shared_ptrINS_14RequestContextEE.exit, label %10

10:                                               ; preds = %3
  %11 = getelementptr inbounds nuw i8, ptr %9, i64 8
  %12 = load atomic i64, ptr %11 acquire, align 8
  %13 = icmp eq i64 %12, 4294967297
  %14 = trunc i64 %12 to i32
  br i1 %13, label %15, label %23

15:                                               ; preds = %10
  store i32 0, ptr %11, align 8, !tbaa !42
  %16 = getelementptr inbounds nuw i8, ptr %9, i64 12
  store i32 0, ptr %16, align 4, !tbaa !44
  %17 = load ptr, ptr %9, align 8, !tbaa !7
  %18 = getelementptr inbounds nuw i8, ptr %17, i64 16
  %19 = load ptr, ptr %18, align 8
  tail call void %19(ptr noundef nonnull align 8 dereferenceable(16) %9) #14
  %20 = load ptr, ptr %9, align 8, !tbaa !7
  %21 = getelementptr inbounds nuw i8, ptr %20, i64 24
  %22 = load ptr, ptr %21, align 8
  tail call void %22(ptr noundef nonnull align 8 dereferenceable(16) %9) #14
  br label %_ZN5folly12AsyncTimeout15scheduleTimeoutENSt6chrono8durationIlSt5ratioILl1ELl1000EEEEOSt10shared_ptrINS_14RequestContextEE.exit

23:                                               ; preds = %10
  %24 = load i8, ptr @__libc_single_threaded, align 1, !tbaa !38
  %.not.i.i.i.i.i.i = icmp eq i8 %24, 0
  br i1 %.not.i.i.i.i.i.i, label %27, label %25

25:                                               ; preds = %23
  %26 = add nsw i32 %14, -1
  store i32 %26, ptr %11, align 4, !tbaa !39
  br label %_ZN9__gnu_cxx27__exchange_and_add_dispatchEPii.exit.i.i.i.i.i.i

27:                                               ; preds = %23
  %28 = atomicrmw volatile add ptr %11, i32 -1 acq_rel, align 4
  br label %_ZN9__gnu_cxx27__exchange_and_add_dispatchEPii.exit.i.i.i.i.i.i

_ZN9__gnu_cxx27__exchange_and_add_dispatchEPii.exit.i.i.i.i.i.i: ; preds = %27, %25
  %.0.i.i.i.i.i.i.i = phi i32 [ %14, %25 ], [ %28, %27 ]
  %29 = icmp eq i32 %.0.i.i.i.i.i.i.i, 1
  br i1 %29, label %30, label %_ZN5folly12AsyncTimeout15scheduleTimeoutENSt6chrono8durationIlSt5ratioILl1ELl1000EEEEOSt10shared_ptrINS_14RequestContextEE.exit, !prof !45

30:                                               ; preds = %_ZN9__gnu_cxx27__exchange_and_add_dispatchEPii.exit.i.i.i.i.i.i
  tail call void @_ZNSt16_Sp_counted_baseILN9__gnu_cxx12_Lock_policyE2EE24_M_release_last_use_coldEv(ptr noundef nonnull align 8 dereferenceable(16) %9) #14
  br label %_ZN5folly12AsyncTimeout15scheduleTimeoutENSt6chrono8durationIlSt5ratioILl1ELl1000EEEEOSt10shared_ptrINS_14RequestContextEE.exit

_ZN5folly12AsyncTimeout15scheduleTimeoutENSt6chrono8durationIlSt5ratioILl1ELl1000EEEEOSt10shared_ptrINS_14RequestContextEE.exit: ; preds = %3, %15, %_ZN9__gnu_cxx27__exchange_and_add_dispatchEPii.exit.i.i.i.i.i.i, %30
  %31 = zext i32 %1 to i64
  %32 = getelementptr inbounds nuw i8, ptr %0, i64 176
  %33 = load ptr, ptr %32, align 8, !tbaa !10
  %34 = load ptr, ptr %33, align 8, !tbaa !7
  %35 = getelementptr inbounds nuw i8, ptr %34, i64 32
  %36 = load ptr, ptr %35, align 8
  %37 = tail call noundef zeroext i1 %36(ptr noundef nonnull align 8 dereferenceable(16) %33, ptr noundef nonnull align 8 dereferenceable(200) %0, i64 %31)
  ret i1 %37
}